; Function Attrs: nounwind uwtable
define dso_local noundef zeroext i1 @vu_add_shared_object(ptr noundef %0, ptr noundef readonly captures(none) %1) local_unnamed_addr #3 {
  %3 = alloca %struct.VhostUserMsg, align 4
  call void @llvm.lifetime.start.p0(i64 328, ptr nonnull %3) #21
  %4 = getelementptr inbounds nuw i8, ptr %3, i64 28
  call void @llvm.memset.p0.i64(ptr noundef nonnull align 4 dereferenceable(328) %4, i8 0, i64 300, i1 false)
  store i32 6, ptr %3, align 4
  %5 = getelementptr inbounds nuw i8, ptr %3, i64 4
  store i32 1, ptr %5, align 4
  %6 = getelementptr inbounds nuw i8, ptr %3, i64 8
  store i32 16, ptr %6, align 4
  %7 = getelementptr inbounds nuw i8, ptr %3, i64 12
  call void @llvm.memcpy.p0.p0.i64(ptr noundef nonnull align 4 dereferenceable(16) %7, ptr noundef nonnull align 1 dereferenceable(16) %1, i64 16, i1 false)
  %8 = getelementptr i8, ptr %0, i64 128
  %.val = load i64, ptr %8, align 8
  %9 = and i64 %.val, 262144
  %.not = icmp eq i64 %9, 0
  br i1 %.not, label %17, label %10

10:                                               ; preds = %2
  %11 = getelementptr inbounds nuw i8, ptr %0, i64 56
  %12 = tail call i32 @pthread_mutex_lock(ptr noundef nonnull %11) #21
  %13 = getelementptr inbounds nuw i8, ptr %0, i64 96
  %14 = load i32, ptr %13, align 8
  %15 = call fastcc zeroext i1 @vu_message_write(ptr noundef nonnull %0, i32 noundef %14, ptr noundef nonnull %3)
  %16 = call i32 @pthread_mutex_unlock(ptr noundef nonnull %11) #21
  br label %17

17:                                               ; preds = %2, %10
  %.0 = phi i1 [ %15, %10 ], [ false, %2 ]
  call void @llvm.lifetime.end.p0(i64 328, ptr nonnull %3) #21
  ret i1 %.0
}